target datalayout = "e-m:e-p270:32:32-p271:32:32-p272:64:64-i64:64-i128:128-f80:128-n8:16:32:64-S128"
target triple = "x86_64-pc-linux-gnu"

%"class.OpenImageIO::v3_1_0::basic_string_view" = type { ptr, i64 }
%"struct.OpenImageIO::v3_1_0::ROI" = type { i32, i32, i32, i32, i32, i32, i32, i32 }
%"class.OpenImageIO::v3_1_0::ImageBuf" = type { %"class.std::unique_ptr.60" }
%"class.std::unique_ptr.60" = type { %"struct.std::__uniq_ptr_data.61" }
%"struct.std::__uniq_ptr_data.61" = type { %"class.std::__uniq_ptr_impl.62" }
%"class.std::__uniq_ptr_impl.62" = type { %"class.std::tuple.63" }
%"class.std::tuple.63" = type { %"struct.std::_Tuple_impl.64" }
%"struct.std::_Tuple_impl.64" = type { %"struct.std::_Tuple_impl.65", %"struct.std::_Head_base.67" }
%"struct.std::_Tuple_impl.65" = type { %"struct.std::_Head_base.66" }
%"struct.std::_Head_base.66" = type { ptr }
%"struct.std::_Head_base.67" = type { ptr }

@.str.87 = private unnamed_addr constant [34 x i8] c"ImageBufAlgo::ociodisplay() error\00", align 1

; Function Attrs: mustprogress nounwind uwtable
define linkonce_odr hidden noundef i64 @_ZNK11OpenImageIO6v3_1_017basic_string_viewIcSt11char_traitsIcEE4sizeEv(ptr noundef nonnull align 8 dereferenceable(16) %0) #6 comdat align 2 {
  %2 = alloca ptr, align 8
  store ptr %0, ptr %2, align 8, !tbaa !10
  %3 = load ptr, ptr %2, align 8
  %4 = getelementptr inbounds nuw %"class.OpenImageIO::v3_1_0::basic_string_view", ptr %3, i32 0, i32 1
  %5 = load i64, ptr %4, align 8, !tbaa !17
  ret i64 %5
}

; Function Attrs: mustprogress nounwind uwtable
define linkonce_odr hidden noundef ptr @_ZNK11OpenImageIO6v3_1_017basic_string_viewIcSt11char_traitsIcEE4dataEv(ptr noundef nonnull align 8 dereferenceable(16) %0) #6 comdat align 2 {
  %2 = alloca ptr, align 8
  store ptr %0, ptr %2, align 8, !tbaa !10
  %3 = load ptr, ptr %2, align 8
  %4 = getelementptr inbounds nuw %"class.OpenImageIO::v3_1_0::basic_string_view", ptr %3, i32 0, i32 0
  %5 = load ptr, ptr %4, align 8, !tbaa !14
  ret ptr %5
}

; Function Attrs: mustprogress nounwind uwtable
define linkonce_odr hidden void @_ZN11OpenImageIO6v3_1_017basic_string_viewIcSt11char_traitsIcEEC2ERKS4_(ptr noundef nonnull align 8 dereferenceable(16) %0, ptr noundef nonnull align 8 dereferenceable(16) %1) unnamed_addr #6 comdat align 2 {
  %3 = alloca ptr, align 8
  %4 = alloca ptr, align 8
  store ptr %0, ptr %3, align 8, !tbaa !10
  store ptr %1, ptr %4, align 8, !tbaa !10
  %5 = load ptr, ptr %3, align 8
  %6 = getelementptr inbounds nuw %"class.OpenImageIO::v3_1_0::basic_string_view", ptr %5, i32 0, i32 0
  %7 = load ptr, ptr %4, align 8, !tbaa !10
  %8 = call noundef ptr @_ZNK11OpenImageIO6v3_1_017basic_string_viewIcSt11char_traitsIcEE4dataEv(ptr noundef nonnull align 8 dereferenceable(16) %7) #5
  store ptr %8, ptr %6, align 8, !tbaa !14
  %9 = getelementptr inbounds nuw %"class.OpenImageIO::v3_1_0::basic_string_view", ptr %5, i32 0, i32 1
  %10 = load ptr, ptr %4, align 8, !tbaa !10
  %11 = call noundef i64 @_ZNK11OpenImageIO6v3_1_017basic_string_viewIcSt11char_traitsIcEE4sizeEv(ptr noundef nonnull align 8 dereferenceable(16) %10) #5
  store i64 %11, ptr %9, align 8, !tbaa !17
  ret void
}

; Function Attrs: mustprogress uwtable
define void @_ZN11OpenImageIO6v3_1_012ImageBufAlgo11ociodisplayERKNS0_8ImageBufENS0_17basic_string_viewIcSt11char_traitsIcEEES8_S8_S8_bbS8_S8_PKNS0_11ColorConfigENS0_3ROIEi(ptr dead_on_unwind noalias writable sret(%"class.OpenImageIO::v3_1_0::ImageBuf") align 8 %0, ptr noundef nonnull align 8 dereferenceable(16) %1, ptr noundef %2, ptr noundef %3, ptr noundef %4, ptr noundef %5, i1 noundef zeroext %6, i1 noundef zeroext %7, ptr noundef %8, ptr noundef %9, ptr noundef %10, ptr noundef byval(%"struct.OpenImageIO::v3_1_0::ROI") align 8 %11, i32 noundef %12) #7 personality ptr @__gxx_personality_v0 {
  %14 = alloca ptr, align 8
  %15 = alloca ptr, align 8
  %16 = alloca ptr, align 8
  %17 = alloca ptr, align 8
  %18 = alloca ptr, align 8
  %19 = alloca ptr, align 8
  %20 = alloca i8, align 1
  %21 = alloca i8, align 1
  %22 = alloca ptr, align 8
  %23 = alloca ptr, align 8
  %24 = alloca ptr, align 8
  %25 = alloca i32, align 4
  %26 = alloca i1, align 1
  %27 = alloca i8, align 1
  %28 = alloca %"class.OpenImageIO::v3_1_0::basic_string_view", align 8
  %29 = alloca ptr, align 8
  %30 = alloca i32, align 4
  %31 = alloca %"class.OpenImageIO::v3_1_0::basic_string_view", align 8
  %32 = alloca %"class.OpenImageIO::v3_1_0::basic_string_view", align 8
  %33 = alloca %"class.OpenImageIO::v3_1_0::basic_string_view", align 8
  %34 = alloca %"class.OpenImageIO::v3_1_0::basic_string_view", align 8
  %35 = alloca %"class.OpenImageIO::v3_1_0::basic_string_view", align 8
  %36 = alloca %"struct.OpenImageIO::v3_1_0::ROI", align 8
  store ptr %0, ptr %14, align 8
  store ptr %1, ptr %15, align 8, !tbaa !317
  store ptr %2, ptr %16, align 8, !tbaa !10
  store ptr %3, ptr %17, align 8, !tbaa !10
  store ptr %4, ptr %18, align 8, !tbaa !10
  store ptr %5, ptr %19, align 8, !tbaa !10
  %37 = zext i1 %6 to i8
  store i8 %37, ptr %20, align 1, !tbaa !8
  %38 = zext i1 %7 to i8
  store i8 %38, ptr %21, align 1, !tbaa !8
  store ptr %8, ptr %22, align 8, !tbaa !10
  store ptr %9, ptr %23, align 8, !tbaa !10
  store ptr %10, ptr %24, align 8, !tbaa !121
  store i32 %12, ptr %25, align 4, !tbaa !18
  store i1 false, ptr %26, align 1
  call void @_ZN11OpenImageIO6v3_1_08ImageBufC1Ev(ptr noundef nonnull align 8 dereferenceable(16) %0)
  call void @llvm.lifetime.start.p0(i64 1, ptr %27) #5
  %39 = load ptr, ptr %15, align 8, !tbaa !317
  invoke void @_ZN11OpenImageIO6v3_1_017basic_string_viewIcSt11char_traitsIcEEC2ERKS4_(ptr noundef nonnull align 8 dereferenceable(16) %28, ptr noundef nonnull align 8 dereferenceable(16) %2)
          to label %40 unwind label %62

40:                                               ; preds = %13
  invoke void @_ZN11OpenImageIO6v3_1_017basic_string_viewIcSt11char_traitsIcEEC2ERKS4_(ptr noundef nonnull align 8 dereferenceable(16) %31, ptr noundef nonnull align 8 dereferenceable(16) %3)
          to label %41 unwind label %62

41:                                               ; preds = %40
  invoke void @_ZN11OpenImageIO6v3_1_017basic_string_viewIcSt11char_traitsIcEEC2ERKS4_(ptr noundef nonnull align 8 dereferenceable(16) %32, ptr noundef nonnull align 8 dereferenceable(16) %4)
          to label %42 unwind label %62

42:                                               ; preds = %41
  invoke void @_ZN11OpenImageIO6v3_1_017basic_string_viewIcSt11char_traitsIcEEC2ERKS4_(ptr noundef nonnull align 8 dereferenceable(16) %33, ptr noundef nonnull align 8 dereferenceable(16) %5)
          to label %43 unwind label %62

43:                                               ; preds = %42
  %44 = load i8, ptr %20, align 1, !tbaa !8, !range !23, !noundef !24
  %45 = trunc i8 %44 to i1
  %46 = load i8, ptr %21, align 1, !tbaa !8, !range !23, !noundef !24
  %47 = trunc i8 %46 to i1
  invoke void @_ZN11OpenImageIO6v3_1_017basic_string_viewIcSt11char_traitsIcEEC2ERKS4_(ptr noundef nonnull align 8 dereferenceable(16) %34, ptr noundef nonnull align 8 dereferenceable(16) %8)
          to label %48 unwind label %62

48:                                               ; preds = %43
  invoke void @_ZN11OpenImageIO6v3_1_017basic_string_viewIcSt11char_traitsIcEEC2ERKS4_(ptr noundef nonnull align 8 dereferenceable(16) %35, ptr noundef nonnull align 8 dereferenceable(16) %9)
          to label %49 unwind label %62

49:                                               ; preds = %48
  %50 = load ptr, ptr %24, align 8, !tbaa !121
  call void @llvm.memcpy.p0.p0.i64(ptr align 4 %36, ptr align 8 %11, i64 32, i1 false), !tbaa.struct !319
  %51 = load i32, ptr %25, align 4, !tbaa !18
  %52 = invoke noundef zeroext i1 @_ZN11OpenImageIO6v3_1_012ImageBufAlgo11ociodisplayERNS0_8ImageBufERKS2_NS0_17basic_string_viewIcSt11char_traitsIcEEES9_S9_S9_bbS9_S9_PKNS0_11ColorConfigENS0_3ROIEi(ptr noundef nonnull align 8 dereferenceable(16) %0, ptr noundef nonnull align 8 dereferenceable(16) %39, ptr noundef %28, ptr noundef %31, ptr noundef %32, ptr noundef %33, i1 noundef zeroext %45, i1 noundef zeroext %47, ptr noundef %34, ptr noundef %35, ptr noundef %50, ptr noundef byval(%"struct.OpenImageIO::v3_1_0::ROI") align 8 %36, i32 noundef %51)
          to label %53 unwind label %62

53:                                               ; preds = %49
  %54 = zext i1 %52 to i8
  store i8 %54, ptr %27, align 1, !tbaa !8
  %55 = load i8, ptr %27, align 1, !tbaa !8, !range !23, !noundef !24
  %56 = trunc i8 %55 to i1
  br i1 %56, label %66, label %57

57:                                               ; preds = %53
  %58 = invoke noundef zeroext i1 @_ZNK11OpenImageIO6v3_1_08ImageBuf9has_errorEv(ptr noundef nonnull align 8 dereferenceable(16) %0)
          to label %59 unwind label %62

59:                                               ; preds = %57
  br i1 %58, label %66, label %60

60:                                               ; preds = %59
  invoke void @_ZNK11OpenImageIO6v3_1_08ImageBuf8errorfmtIA34_cJEEEvRKT_DpOT0_(ptr noundef nonnull align 8 dereferenceable(16) %0, ptr noundef nonnull align 1 dereferenceable(34) @.str.87)
          to label %61 unwind label %62

61:                                               ; preds = %60
  br label %66

62:                                               ; preds = %60, %57, %49, %48, %43, %42, %41, %40, %13
  %63 = landingpad { ptr, i32 }
          cleanup
  %64 = extractvalue { ptr, i32 } %63, 0
  store ptr %64, ptr %29, align 8
  %65 = extractvalue { ptr, i32 } %63, 1
  store i32 %65, ptr %30, align 4
  call void @llvm.lifetime.end.p0(i64 1, ptr %27) #5
  call void @_ZN11OpenImageIO6v3_1_08ImageBufD1Ev(ptr noundef nonnull align 8 dereferenceable(16) %0) #5
  br label %70

66:                                               ; preds = %61, %59, %53
  store i1 true, ptr %26, align 1
  call void @llvm.lifetime.end.p0(i64 1, ptr %27) #5
  %67 = load i1, ptr %26, align 1
  br i1 %67, label %69, label %68

68:                                               ; preds = %66
  call void @_ZN11OpenImageIO6v3_1_08ImageBufD1Ev(ptr noundef nonnull align 8 dereferenceable(16) %0) #5
  br label %69

69:                                               ; preds = %68, %66
  ret void

70:                                               ; preds = %62
  %71 = load ptr, ptr %29, align 8
  %72 = load i32, ptr %30, align 4
  %73 = insertvalue { ptr, i32 } poison, ptr %71, 0
  %74 = insertvalue { ptr, i32 } %73, i32 %72, 1
  resume { ptr, i32 } %74
}