; Function Attrs: mustprogress uwtable
define void @_ZN11OpenImageIO6v3_1_012ImageBufAlgo11ociodisplayERKNS0_8ImageBufENS0_17basic_string_viewIcSt11char_traitsIcEEES8_S8_S8_bbS8_S8_PKNS0_11ColorConfigENS0_3ROIEi(ptr dead_on_unwind noalias nonnull writable sret(%"class.OpenImageIO::v3_1_0::ImageBuf") align 8 %0, ptr noundef nonnull align 8 dereferenceable(16) %1, ptr noundef readonly captures(none) %2, ptr noundef readonly captures(none) %3, ptr noundef readonly captures(none) %4, ptr noundef readonly captures(none) %5, i1 noundef zeroext %6, i1 noundef zeroext %7, ptr noundef readonly captures(none) %8, ptr noundef readonly captures(none) %9, ptr noundef %10, ptr noundef readonly byval(%"struct.OpenImageIO::v3_1_0::ROI") align 8 captures(none) %11, i32 noundef %12) local_unnamed_addr #5 personality ptr @__gxx_personality_v0 {
  %14 = alloca %"class.OpenImageIO::v3_1_0::basic_string_view", align 8
  %15 = alloca %"class.OpenImageIO::v3_1_0::basic_string_view", align 8
  %16 = alloca %"class.OpenImageIO::v3_1_0::basic_string_view", align 8
  %17 = alloca %"class.OpenImageIO::v3_1_0::basic_string_view", align 8
  %18 = alloca %"class.OpenImageIO::v3_1_0::basic_string_view", align 8
  %19 = alloca %"class.OpenImageIO::v3_1_0::basic_string_view", align 8
  tail call void @_ZN11OpenImageIO6v3_1_08ImageBufC1Ev(ptr noundef nonnull align 8 dereferenceable(16) %0)
  %20 = load ptr, ptr %2, align 8, !tbaa !4
  store ptr %20, ptr %14, align 8, !tbaa !4
  %21 = getelementptr inbounds nuw i8, ptr %14, i64 8
  %22 = getelementptr inbounds nuw i8, ptr %2, i64 8
  %23 = load i64, ptr %22, align 8, !tbaa !11
  store i64 %23, ptr %21, align 8, !tbaa !11
  %24 = load ptr, ptr %3, align 8, !tbaa !4
  store ptr %24, ptr %15, align 8, !tbaa !4
  %25 = getelementptr inbounds nuw i8, ptr %15, i64 8
  %26 = getelementptr inbounds nuw i8, ptr %3, i64 8
  %27 = load i64, ptr %26, align 8, !tbaa !11
  store i64 %27, ptr %25, align 8, !tbaa !11
  %28 = load ptr, ptr %4, align 8, !tbaa !4
  store ptr %28, ptr %16, align 8, !tbaa !4
  %29 = getelementptr inbounds nuw i8, ptr %16, i64 8
  %30 = getelementptr inbounds nuw i8, ptr %4, i64 8
  %31 = load i64, ptr %30, align 8, !tbaa !11
  store i64 %31, ptr %29, align 8, !tbaa !11
  %32 = load ptr, ptr %5, align 8, !tbaa !4
  store ptr %32, ptr %17, align 8, !tbaa !4
  %33 = getelementptr inbounds nuw i8, ptr %17, i64 8
  %34 = getelementptr inbounds nuw i8, ptr %5, i64 8
  %35 = load i64, ptr %34, align 8, !tbaa !11
  store i64 %35, ptr %33, align 8, !tbaa !11
  %36 = load ptr, ptr %8, align 8, !tbaa !4
  store ptr %36, ptr %18, align 8, !tbaa !4
  %37 = getelementptr inbounds nuw i8, ptr %18, i64 8
  %38 = getelementptr inbounds nuw i8, ptr %8, i64 8
  %39 = load i64, ptr %38, align 8, !tbaa !11
  store i64 %39, ptr %37, align 8, !tbaa !11
  %40 = load ptr, ptr %9, align 8, !tbaa !4
  store ptr %40, ptr %19, align 8, !tbaa !4
  %41 = getelementptr inbounds nuw i8, ptr %19, i64 8
  %42 = getelementptr inbounds nuw i8, ptr %9, i64 8
  %43 = load i64, ptr %42, align 8, !tbaa !11
  store i64 %43, ptr %41, align 8, !tbaa !11
  %44 = invoke noundef zeroext i1 @_ZN11OpenImageIO6v3_1_012ImageBufAlgo11ociodisplayERNS0_8ImageBufERKS2_NS0_17basic_string_viewIcSt11char_traitsIcEEES9_S9_S9_bbS9_S9_PKNS0_11ColorConfigENS0_3ROIEi(ptr noundef nonnull align 8 dereferenceable(16) %0, ptr noundef nonnull align 8 dereferenceable(16) %1, ptr noundef nonnull %14, ptr noundef nonnull %15, ptr noundef nonnull %16, ptr noundef nonnull %17, i1 noundef zeroext %6, i1 noundef zeroext %7, ptr noundef nonnull %18, ptr noundef nonnull %19, ptr noundef %10, ptr noundef nonnull byval(%"struct.OpenImageIO::v3_1_0::ROI") align 8 %11, i32 noundef %12)
          to label %45 unwind label %50

45:                                               ; preds = %13
  br i1 %44, label %52, label %46

46:                                               ; preds = %45
  %47 = invoke noundef zeroext i1 @_ZNK11OpenImageIO6v3_1_08ImageBuf9has_errorEv(ptr noundef nonnull align 8 dereferenceable(16) %0)
          to label %48 unwind label %50

48:                                               ; preds = %46
  br i1 %47, label %52, label %49

49:                                               ; preds = %48
  invoke void @_ZNK11OpenImageIO6v3_1_08ImageBuf8errorfmtIA34_cJEEEvRKT_DpOT0_(ptr noundef nonnull align 8 dereferenceable(16) %0, ptr noundef nonnull align 1 dereferenceable(34) @.str.87)
          to label %52 unwind label %50

50:                                               ; preds = %49, %46, %13
  %51 = landingpad { ptr, i32 }
          cleanup
  tail call void @_ZN11OpenImageIO6v3_1_08ImageBufD1Ev(ptr noundef nonnull align 8 dereferenceable(16) %0) #34
  resume { ptr, i32 } %51

52:                                               ; preds = %45, %48, %49
  ret void
}